
temp_fibonacci.o:     format de fixer elf32-sisa
temp_fibonacci.o
arquitectura: sisa:3, senyaladors 0x00000112:
EXEC_P, HAS_SYMS, D_PAGED
adreça d'inici 0x00000000

Program Header:
    LOAD off    0x00000000 vaddr 0x00003f8c paddr 0x00003f8c align 2**0
         filesz 0x00000270 memsz 0x00000270 flags r-x
    LOAD off    0x00000270 vaddr 0x00005000 paddr 0x00005000 align 2**0
         filesz 0x00000008 memsz 0x0000000a flags rw-

Seccions:
Nom Idx           Mida      VMA       LMA       Des. Fit. Alin.  Senyaladors
  0 .sistema      000001fc  00004000  00004000  00000074  2**1  CONTENTS, ALLOC, LOAD, READONLY, CODE
  1 .sysdata      00000008  00005000  00005000  00000270  2**1  CONTENTS, ALLOC, LOAD, DATA
  2 .bss          00000002  00005008  00005008  00000278  2**0  ALLOC
  3 .stab         00000498  0000500c  0000500c  00000278  2**2  CONTENTS, READONLY, DEBUGGING
  4 .stabstr      000003e2  000054a4  000054a4  00000710  2**0  CONTENTS, READONLY, DEBUGGING
SYMBOL TABLE:
00004000 l    d  .sistema	00000000 .sistema
0000406c l       .sistema	00000000 RSI__interrup_timer
0000409a l       .sistema	00000000 RSI_default_resume
00004098 l       .sistema	00000000 RSI__interrup_keyboard
00004016 l       .sistema	00000000 __exit
0000403e l       .sistema	00000000 __interrupcion
0000404c l       .sistema	00000000 __finRSG
00004082 l       .sistema	00000000 context_switching
000040ae l       .sistema	00000000 __pol1
000040b8 l       .sistema	00000000 __pol2
00004000 g       .sistema	00000000 __entry_point
000040e8 g     F .sistema	0000001e write_7segments
0000415a g     F .sistema	000000a2 main
00004018 g       .sistema	00000000 RSG
000040d2 g     F .sistema	00000016 read_switchs
00004106 g     F .sistema	00000054 fibonacci_recursiu
0000409c g     F .sistema	00000036 read_key_bloq


Disassembly of section .sistema:

00004000 <__entry_point>:
    4000:	5218 	movi	r1, 24
    4002:	5340 	movhi	r1, 64
    4004:	fa70 	wrs	s5, r1
    4006:	5e00 	movi	r7, 0
    4008:	5f82 	movhi	r7, -126
    400a:	5a16 	movi	r5, 22
    400c:	5b40 	movhi	r5, 64
    400e:	5c5a 	movi	r6, 90
    4010:	5d41 	movhi	r6, 65
    4012:	f020 	ei	
    4014:	a183 	jmp	r6

00004016 <__exit>:
    4016:	ffff 	halt	

00004018 <RSG>:
    4018:	2ff2 	addi	r7, r7, -14
    401a:	41c6 	st	12(r7), r0
    401c:	43c5 	st	10(r7), r1
    401e:	45c4 	st	8(r7), r2
    4020:	47c3 	st	6(r7), r3
    4022:	49c2 	st	4(r7), r4
    4024:	4bc1 	st	2(r7), r5
    4026:	4dc0 	st	0(r7), r6
    4028:	f22c 	rds	r1, s0
    402a:	f46c 	rds	r2, s1
    402c:	f6ec 	rds	r3, s3
    402e:	2ffa 	addi	r7, r7, -6
    4030:	43c2 	st	4(r7), r1
    4032:	45c1 	st	2(r7), r2
    4034:	47c0 	st	0(r7), r3
    4036:	f2ac 	rds	r1, s2
    4038:	540f 	movi	r2, 15
    403a:	165a 	cmpeq	r3, r1, r2
    403c:	6700 	bnz	r3, 2

0000403e <__interrupcion>:
    403e:	f228 	getiid	r1
    4040:	0261 	add	r1, r1, r1
    4042:	5400 	movi	r2, 0
    4044:	5550 	movhi	r2, 80
    4046:	04a1 	add	r2, r2, r1
    4048:	3480 	ld	r2, 0(r2)
    404a:	ac84 	jal	r6, r2

0000404c <__finRSG>:
    404c:	37c0 	ld	r3, 0(r7)
    404e:	35c1 	ld	r2, 2(r7)
    4050:	33c2 	ld	r1, 4(r7)
    4052:	2fc6 	addi	r7, r7, 6
    4054:	f6f0 	wrs	s3, r3
    4056:	f2b0 	wrs	s1, r2
    4058:	f070 	wrs	s0, r1
    405a:	3dc0 	ld	r6, 0(r7)
    405c:	3bc1 	ld	r5, 2(r7)
    405e:	39c2 	ld	r4, 4(r7)
    4060:	37c3 	ld	r3, 6(r7)
    4062:	35c4 	ld	r2, 8(r7)
    4064:	33c5 	ld	r1, 10(r7)
    4066:	31c6 	ld	r0, 12(r7)
    4068:	2fce 	addi	r7, r7, 14
    406a:	f024 	reti	

0000406c <RSI__interrup_timer>:
    406c:	5808 	movi	r4, 8
    406e:	5950 	movhi	r4, 80
    4070:	3700 	ld	r3, 0(r4)
    4072:	5401 	movi	r2, 1
    4074:	5500 	movhi	r2, 0
    4076:	12da 	cmpeq	r1, r3, r2
    4078:	6304 	bnz	r1, 10
    407a:	26c1 	addi	r3, r3, 1
    407c:	4700 	st	0(r4), r3
    407e:	7706 	out	6, r3
    4080:	a183 	jmp	r6

00004082 <context_switching>:
    4082:	5808 	movi	r4, 8
    4084:	5950 	movhi	r4, 80
    4086:	5600 	movi	r3, 0
    4088:	5700 	movhi	r3, 0
    408a:	4700 	st	0(r4), r3
    408c:	5000 	movi	r0, 0
    408e:	5110 	movhi	r0, 16
    4090:	5600 	movi	r3, 0
    4092:	5832 	movi	r4, 50
    4094:	59c0 	movhi	r4, -64
    4096:	a103 	jmp	r4

00004098 <RSI__interrup_keyboard>:
    4098:	a183 	jmp	r6

0000409a <RSI_default_resume>:
    409a:	a183 	jmp	r6

0000409c <read_key_bloq>:

unsigned int tics_timer=0;     //variable global cuyo valor es modificado por la interrupcion de reloj

int read_key_bloq (void)
{
    409c:	2ff0 	addi	r7, r7, -16
    409e:	4bc7 	st	14(r7), r5
    40a0:	4dc6 	st	12(r7), r6
    40a2:	2dcc 	addi	r6, r7, 12
    40a4:	45c1 	st	2(r7), r2
    40a6:	47c0 	st	0(r7), r3
  // espera a que se pulse un pulsador y devuelve el numero del pulsador apretado.
  int res,aux1,aux2,aux3;

    /*
    polling1: in   r3, 7        ; leemos el estado de los pulsadores
              not  r3, r3       ; invertimos los bits ya que los pulsadores son activos a 0
              movi r1, 0x0F     ; mascara para quedarnos con los 4 bits de menor peso
              and  r1, r3, r1   ; nos quedamos con los 4 bits de los pulsadores
              bz   r1, polling1 ; si todos valen 0 nos quedamos esperando (bloqueando) a que se pulse uno. 
    pooling2: in   r3, 7        ; volvemos a leer el estado de los pulsadores
              not  r3, r3       ;
              movi r2, 0x0F     ;
              and  r2, r3, r2   ; nos quedamos con los 4 bits ya que no sabemos como esta implementado el registro hardware de los pulsadores
              bnz  r2, polling2 ; y esperamos hasta que no se pulse ninguno
    */

__asm__ (  
    40a8:	37bd 	ld	r3, -6(r6)
    40aa:	35be 	ld	r2, -4(r6)
    40ac:	33bf 	ld	r1, -2(r6)

000040ae <__pol1>:
    40ae:	7607 	in	r3, 7
    40b0:	06d8 	not	r3, r3
    40b2:	520f 	movi	r1, 15
    40b4:	02c1 	and	r1, r3, r1
    40b6:	62fb 	bz	r1, -8

000040b8 <__pol2>:
    40b8:	7607 	in	r3, 7
    40ba:	06d8 	not	r3, r3
    40bc:	540f 	movi	r2, 15
    40be:	04c2 	and	r2, r3, r2
    40c0:	65fb 	bnz	r2, -8
    40c2:	43bc 	st	-8(r6), r1
        "__pol1: in %1, %4\n\t"
        "not %1, %1\n\t"
        "movi %0, 15\n\t"
        "and %0, %1, %0\n\t"
        "bz %0, __pol1\n\t"      
        "__pol2: in %1, %4\n\t"
        "not %1, %1\n\t"
        "movi %2, 15\n\t"
        "and %2, %1, %2\n\t"
        "bnz %2, __pol2\n\t"
        : "=r" (res)
        : "r" (aux1),
          "r" (aux2),
          "r" (aux3),
          "i" (7));              // Puerto 7 => Registro con el estado de los pulsadores (KEY)

    return res;
    40c4:	33bc 	ld	r1, -8(r6)
}
    40c6:	35c1 	ld	r2, 2(r7)
    40c8:	37c0 	ld	r3, 0(r7)
    40ca:	3dc6 	ld	r6, 12(r7)
    40cc:	3bc7 	ld	r5, 14(r7)
    40ce:	2fd0 	addi	r7, r7, 16
    40d0:	a143 	jmp	r5

000040d2 <read_switchs>:


/************************************************************
* Devuelve el estado actual de los interruptores (switch)   *
* de la placa DE1                                           *
************************************************************/ 
unsigned int read_switchs(void)
{
    40d2:	2ffa 	addi	r7, r7, -6
    40d4:	4bc2 	st	4(r7), r5
    40d6:	4dc1 	st	2(r7), r6
    40d8:	2dc2 	addi	r6, r7, 2
  unsigned int res;

  __asm__ ( "in %0, %1" 
    40da:	7208 	in	r1, 8
    40dc:	43bf 	st	-2(r6), r1
          : "=r" (res)
          : "i" (8));         // Puerto 8 => registro con el estado de los interruptores (SWITCH)

  return res;
    40de:	33bf 	ld	r1, -2(r6)
}
    40e0:	3dc1 	ld	r6, 2(r7)
    40e2:	3bc2 	ld	r5, 4(r7)
    40e4:	2fc6 	addi	r7, r7, 6
    40e6:	a143 	jmp	r5

000040e8 <write_7segments>:
 

/*************************************************************
* Escribe en los visores 7 segmentos un valor hexadecimal    *
* y determina que visores están encendidos y cuales apagados *
*************************************************************/ 
int write_7segments(int valor, char control)
{
    40e8:	2ff8 	addi	r7, r7, -8
    40ea:	4bc3 	st	6(r7), r5
    40ec:	4dc2 	st	4(r7), r6
    40ee:	2dc4 	addi	r6, r7, 4
    40f0:	45c0 	st	0(r7), r2
    int res;

    __asm__ (
    40f2:	d586 	ldb	r2, 6(r6)
    40f4:	3382 	ld	r1, 4(r6)
    40f6:	7509 	out	9, r2
    40f8:	730a 	out	10, r1
        "out %0, %1\n\t"      // apagamos/encendemos los visores
        "out %2, %3\n\t"      // mostramos el valor
        : /* sin salidas*/
        : "i" (9),            // Puerto 9 => Control visores
          "r" (control),
          "i" (10),           // Puerto 10 => Valor visores
          "r" (valor));

    return res;
    40fa:	33bf 	ld	r1, -2(r6)
}
    40fc:	35c0 	ld	r2, 0(r7)
    40fe:	3dc2 	ld	r6, 4(r7)
    4100:	3bc3 	ld	r5, 6(r7)
    4102:	2fc8 	addi	r7, r7, 8
    4104:	a143 	jmp	r5

00004106 <fibonacci_recursiu>:


/* key codes */
#define KEY3      0x08
#define KEY2      0x04
#define KEY1      0x02
#define KEY0      0x01


unsigned int fibonacci_recursiu(unsigned int n)
{
    4106:	2ff6 	addi	r7, r7, -10
    4108:	4bc4 	st	8(r7), r5
    410a:	4dc3 	st	6(r7), r6
    410c:	2dc6 	addi	r6, r7, 6
    410e:	45c1 	st	2(r7), r2
    4110:	47c0 	st	0(r7), r3
    if (n<2)
    4112:	3382 	ld	r1, 4(r6)
    4114:	5401 	movi	r2, 1
    4116:	126a 	cmpleu	r1, r1, r2
    4118:	6204 	bz	r1, 10
        return n;
    411a:	3382 	ld	r1, 4(r6)
    411c:	43bf 	st	-2(r6), r1
    411e:	5a00 	movi	r5, 0
    4120:	6a15 	bz	r5, 44
    else
        return fibonacci_recursiu(n-1) + fibonacci_recursiu(n-2);
    4122:	3382 	ld	r1, 4(r6)
    4124:	247f 	addi	r2, r1, -1
    4126:	2ffe 	addi	r7, r7, -2
    4128:	23c0 	addi	r1, r7, 0
    412a:	4440 	st	0(r1), r2
    412c:	5206 	movi	r1, 6
    412e:	5341 	movhi	r1, 65
    4130:	aa44 	jal	r5, r1
    4132:	2fc2 	addi	r7, r7, 2
    4134:	2640 	addi	r3, r1, 0
    4136:	3382 	ld	r1, 4(r6)
    4138:	247e 	addi	r2, r1, -2
    413a:	2ffe 	addi	r7, r7, -2
    413c:	23c0 	addi	r1, r7, 0
    413e:	4440 	st	0(r1), r2
    4140:	5206 	movi	r1, 6
    4142:	5341 	movhi	r1, 65
    4144:	aa44 	jal	r5, r1
    4146:	2fc2 	addi	r7, r7, 2
    4148:	06e1 	add	r3, r3, r1
    414a:	47bf 	st	-2(r6), r3
    414c:	33bf 	ld	r1, -2(r6)
}
    414e:	35c1 	ld	r2, 2(r7)
    4150:	37c0 	ld	r3, 0(r7)
    4152:	3dc3 	ld	r6, 6(r7)
    4154:	3bc4 	ld	r5, 8(r7)
    4156:	2fca 	addi	r7, r7, 10
    4158:	a143 	jmp	r5

0000415a <main>:

/*
 Muestra el valor de la secuencia de fibonaccio (en hexadecimal) por los visores de la placa
 a) calcula el valor de fibonacci de forma recursiva:
    Si se pulsa KEY1 se llama al fibonacci recursivo con el valor natural que este codificado en los 4 SWITCH de menor peso.

 b) calcula el valor del fibonacci de forma iterativa paso a paso
    Si se pulsa KEY3 se ponen la sucecions al inicio (primer valor)
    cada vez que se pulsa KEY2 muestra el siguiente valor de la sucesion
*/

int main (void)
{
    415a:	2ff0 	addi	r7, r7, -16
    415c:	4bc7 	st	14(r7), r5
    415e:	4dc6 	st	12(r7), r6
    4160:	2dcc 	addi	r6, r7, 12
    4162:	45c0 	st	0(r7), r2
    int pulsador;
    unsigned int interruptores;
    int fibonacci=0, anterior=0, actual=1;
    4164:	5200 	movi	r1, 0
    4166:	43bd 	st	-6(r6), r1
    4168:	5200 	movi	r1, 0
    416a:	43be 	st	-4(r6), r1
    416c:	5201 	movi	r1, 1
    416e:	43bf 	st	-2(r6), r1

    write_7segments(fibonacci, 0x0F);
    4170:	2ffc 	addi	r7, r7, -4
    4172:	25c0 	addi	r2, r7, 0
    4174:	33bd 	ld	r1, -6(r6)
    4176:	4280 	st	0(r2), r1
    4178:	520f 	movi	r1, 15
    417a:	e282 	stb	2(r2), r1
    417c:	52e8 	movi	r1, -24
    417e:	5340 	movhi	r1, 64
    4180:	aa44 	jal	r5, r1
    4182:	2fc4 	addi	r7, r7, 4
    for (;;) {
        pulsador=read_key_bloq();
    4184:	529c 	movi	r1, -100
    4186:	5340 	movhi	r1, 64
    4188:	aa44 	jal	r5, r1
    418a:	43bb 	st	-10(r6), r1
        if (pulsador==KEY3) { //reset para el fibonacci interativo
    418c:	35bb 	ld	r2, -10(r6)
    418e:	5208 	movi	r1, 8
    4190:	1299 	cmpeq	r1, r2, r1
    4192:	6206 	bz	r1, 14
            fibonacci=0;
    4194:	5200 	movi	r1, 0
    4196:	43bd 	st	-6(r6), r1
            anterior=0;
    4198:	5200 	movi	r1, 0
    419a:	43be 	st	-4(r6), r1
            actual=1;
    419c:	5201 	movi	r1, 1
    419e:	43bf 	st	-2(r6), r1
        }
        if (pulsador==KEY2) { //siguiente sucesion del fibonacci iterativo
    41a0:	33bb 	ld	r1, -10(r6)
    41a2:	5404 	movi	r2, 4
    41a4:	125a 	cmpeq	r1, r1, r2
    41a6:	6208 	bz	r1, 18
            fibonacci=actual+anterior;
    41a8:	35bf 	ld	r2, -2(r6)
    41aa:	33be 	ld	r1, -4(r6)
    41ac:	02a1 	add	r1, r2, r1
    41ae:	43bd 	st	-6(r6), r1
            anterior=actual;
    41b0:	33bf 	ld	r1, -2(r6)
    41b2:	43be 	st	-4(r6), r1
            actual=fibonacci;
    41b4:	33bd 	ld	r1, -6(r6)
    41b6:	43bf 	st	-2(r6), r1
        }
        if (pulsador==KEY1) { //llamada al fibonacci recursivo
    41b8:	33bb 	ld	r1, -10(r6)
    41ba:	5402 	movi	r2, 2
    41bc:	125a 	cmpeq	r1, r1, r2
    41be:	6211 	bz	r1, 36
            interruptores=read_switchs();
    41c0:	52d2 	movi	r1, -46
    41c2:	5340 	movhi	r1, 64
    41c4:	aa44 	jal	r5, r1
    41c6:	43bc 	st	-8(r6), r1
            interruptores=interruptores & 0x000F; // limitamos el valor a 15 para que los numeros grandes no desborden la pila en las llamadas recursivas
    41c8:	35bc 	ld	r2, -8(r6)
    41ca:	520f 	movi	r1, 15
    41cc:	0281 	and	r1, r2, r1
    41ce:	43bc 	st	-8(r6), r1
            fibonacci=fibonacci_recursiu(interruptores);
    41d0:	2ffe 	addi	r7, r7, -2
    41d2:	25c0 	addi	r2, r7, 0
    41d4:	33bc 	ld	r1, -8(r6)
    41d6:	4280 	st	0(r2), r1
    41d8:	5206 	movi	r1, 6
    41da:	5341 	movhi	r1, 65
    41dc:	aa44 	jal	r5, r1
    41de:	2fc2 	addi	r7, r7, 2
    41e0:	43bd 	st	-6(r6), r1
        }
        write_7segments(fibonacci, 0x0F);
    41e2:	2ffc 	addi	r7, r7, -4
    41e4:	25c0 	addi	r2, r7, 0
    41e6:	33bd 	ld	r1, -6(r6)
    41e8:	4280 	st	0(r2), r1
    41ea:	520f 	movi	r1, 15
    41ec:	e282 	stb	2(r2), r1
    41ee:	52e8 	movi	r1, -24
    41f0:	5340 	movhi	r1, 64
    41f2:	aa44 	jal	r5, r1
    41f4:	2fc4 	addi	r7, r7, 4
    }
    41f6:	5a84 	movi	r5, -124
    41f8:	5b41 	movhi	r5, 65
    41fa:	a143 	jmp	r5

temp_fibonacci.o:     format de fixer elf32-sisa
temp_fibonacci.o
arquitectura: sisa:3, senyaladors 0x00000112:
EXEC_P, HAS_SYMS, D_PAGED
adreça d'inici 0x00000000

Program Header:
    LOAD off    0x00000000 vaddr 0x00003f8c paddr 0x00003f8c align 2**0
         filesz 0x00000270 memsz 0x00000270 flags r-x
    LOAD off    0x00000270 vaddr 0x00005000 paddr 0x00005000 align 2**0
         filesz 0x00000008 memsz 0x0000000a flags rw-

Seccions:
Nom Idx           Mida      VMA       LMA       Des. Fit. Alin.  Senyaladors
  0 .sistema      000001fc  00004000  00004000  00000074  2**1  CONTENTS, ALLOC, LOAD, READONLY, CODE
  1 .sysdata      00000008  00005000  00005000  00000270  2**1  CONTENTS, ALLOC, LOAD, DATA
  2 .bss          00000002  00005008  00005008  00000278  2**0  ALLOC
  3 .stab         00000498  0000500c  0000500c  00000278  2**2  CONTENTS, READONLY, DEBUGGING
  4 .stabstr      000003e2  000054a4  000054a4  00000710  2**0  CONTENTS, READONLY, DEBUGGING
SYMBOL TABLE:
00005000 l    d  .sysdata	00000000 .sysdata
00005000 l       .sysdata	00000000 interrupts_vector


Disassembly of section .sysdata:

00005000 <interrupts_vector>:
            interruptores=interruptores & 0x000F; // limitamos el valor a 15 para que los numeros grandes no desborden la pila en las llamadas recursivas
            fibonacci=fibonacci_recursiu(interruptores);
        }
        write_7segments(fibonacci, 0x0F);
    }
    5000:	406c 	st	-40(r1), r0
    5002:	409a 	st	52(r2), r0
    5004:	409a 	st	52(r2), r0
    5006:	4098 	st	48(r2), r0
